ARM GAS  /tmp/ccUajAo1.s 			page 1


   1              		.cpu cortex-m3
   2              		.eabi_attribute 20, 1
   3              		.eabi_attribute 21, 1
   4              		.eabi_attribute 23, 3
   5              		.eabi_attribute 24, 1
   6              		.eabi_attribute 25, 1
   7              		.eabi_attribute 26, 1
   8              		.eabi_attribute 30, 1
   9              		.eabi_attribute 34, 1
  10              		.eabi_attribute 18, 4
  11              		.file	"usart.c"
  12              		.text
  13              	.Ltext0:
  14              		.cfi_sections	.debug_frame
  15              		.section	.text.MX_USART1_UART_Init,"ax",%progbits
  16              		.align	1
  17              		.global	MX_USART1_UART_Init
  18              		.arch armv7-m
  19              		.syntax unified
  20              		.thumb
  21              		.thumb_func
  22              		.fpu softvfp
  24              	MX_USART1_UART_Init:
  25              	.LFB65:
  26              		.file 1 "Core/Src/usart.c"
   1:Core/Src/usart.c **** /* USER CODE BEGIN Header */
   2:Core/Src/usart.c **** /**
   3:Core/Src/usart.c ****   ******************************************************************************
   4:Core/Src/usart.c ****   * @file    usart.c
   5:Core/Src/usart.c ****   * @brief   This file provides code for the configuration
   6:Core/Src/usart.c ****   *          of the USART instances.
   7:Core/Src/usart.c ****   ******************************************************************************
   8:Core/Src/usart.c ****   * @attention
   9:Core/Src/usart.c ****   *
  10:Core/Src/usart.c ****   * Copyright (c) 2023 STMicroelectronics.
  11:Core/Src/usart.c ****   * All rights reserved.
  12:Core/Src/usart.c ****   *
  13:Core/Src/usart.c ****   * This software is licensed under terms that can be found in the LICENSE file
  14:Core/Src/usart.c ****   * in the root directory of this software component.
  15:Core/Src/usart.c ****   * If no LICENSE file comes with this software, it is provided AS-IS.
  16:Core/Src/usart.c ****   *
  17:Core/Src/usart.c ****   ******************************************************************************
  18:Core/Src/usart.c ****   */
  19:Core/Src/usart.c **** /* USER CODE END Header */
  20:Core/Src/usart.c **** /* Includes ------------------------------------------------------------------*/
  21:Core/Src/usart.c **** #include "usart.h"
  22:Core/Src/usart.c **** #include "string.h"
  23:Core/Src/usart.c **** #include "oled.h"
  24:Core/Src/usart.c **** 
  25:Core/Src/usart.c **** /* USER CODE BEGIN 0 */
  26:Core/Src/usart.c **** #define BUFFER_SIZE 256
  27:Core/Src/usart.c **** unsigned char rxBuffer[BUFFER_SIZE];
  28:Core/Src/usart.c **** unsigned char cBuffer;
  29:Core/Src/usart.c **** unsigned char rxCount = 0;
  30:Core/Src/usart.c **** /* USER CODE END 0 */
  31:Core/Src/usart.c **** 
  32:Core/Src/usart.c **** UART_HandleTypeDef huart1;
ARM GAS  /tmp/ccUajAo1.s 			page 2


  33:Core/Src/usart.c **** 
  34:Core/Src/usart.c **** /* USART1 init function */
  35:Core/Src/usart.c **** 
  36:Core/Src/usart.c **** void MX_USART1_UART_Init(void)
  37:Core/Src/usart.c **** {
  27              		.loc 1 37 1 view -0
  28              		.cfi_startproc
  29              		@ args = 0, pretend = 0, frame = 0
  30              		@ frame_needed = 0, uses_anonymous_args = 0
  31 0000 08B5     		push	{r3, lr}
  32              	.LCFI0:
  33              		.cfi_def_cfa_offset 8
  34              		.cfi_offset 3, -8
  35              		.cfi_offset 14, -4
  38:Core/Src/usart.c **** 
  39:Core/Src/usart.c ****   /* USER CODE BEGIN USART1_Init 0 */
  40:Core/Src/usart.c **** 
  41:Core/Src/usart.c ****   /* USER CODE END USART1_Init 0 */
  42:Core/Src/usart.c **** 
  43:Core/Src/usart.c ****   /* USER CODE BEGIN USART1_Init 1 */
  44:Core/Src/usart.c **** 
  45:Core/Src/usart.c ****   /* USER CODE END USART1_Init 1 */
  46:Core/Src/usart.c ****   huart1.Instance = USART1;
  36              		.loc 1 46 3 view .LVU1
  37              		.loc 1 46 19 is_stmt 0 view .LVU2
  38 0002 0D48     		ldr	r0, .L5
  39 0004 0D4B     		ldr	r3, .L5+4
  40 0006 0360     		str	r3, [r0]
  47:Core/Src/usart.c ****   huart1.Init.BaudRate = 115200;
  41              		.loc 1 47 3 is_stmt 1 view .LVU3
  42              		.loc 1 47 24 is_stmt 0 view .LVU4
  43 0008 4FF4E133 		mov	r3, #115200
  44 000c 4360     		str	r3, [r0, #4]
  48:Core/Src/usart.c ****   huart1.Init.WordLength = UART_WORDLENGTH_8B;
  45              		.loc 1 48 3 is_stmt 1 view .LVU5
  46              		.loc 1 48 26 is_stmt 0 view .LVU6
  47 000e 0023     		movs	r3, #0
  48 0010 8360     		str	r3, [r0, #8]
  49:Core/Src/usart.c ****   huart1.Init.StopBits = UART_STOPBITS_1;
  49              		.loc 1 49 3 is_stmt 1 view .LVU7
  50              		.loc 1 49 24 is_stmt 0 view .LVU8
  51 0012 C360     		str	r3, [r0, #12]
  50:Core/Src/usart.c ****   huart1.Init.Parity = UART_PARITY_NONE;
  52              		.loc 1 50 3 is_stmt 1 view .LVU9
  53              		.loc 1 50 22 is_stmt 0 view .LVU10
  54 0014 0361     		str	r3, [r0, #16]
  51:Core/Src/usart.c ****   huart1.Init.Mode = UART_MODE_TX_RX;
  55              		.loc 1 51 3 is_stmt 1 view .LVU11
  56              		.loc 1 51 20 is_stmt 0 view .LVU12
  57 0016 0C22     		movs	r2, #12
  58 0018 4261     		str	r2, [r0, #20]
  52:Core/Src/usart.c ****   huart1.Init.HwFlowCtl = UART_HWCONTROL_NONE;
  59              		.loc 1 52 3 is_stmt 1 view .LVU13
  60              		.loc 1 52 25 is_stmt 0 view .LVU14
  61 001a 8361     		str	r3, [r0, #24]
  53:Core/Src/usart.c ****   huart1.Init.OverSampling = UART_OVERSAMPLING_16;
  62              		.loc 1 53 3 is_stmt 1 view .LVU15
ARM GAS  /tmp/ccUajAo1.s 			page 3


  63              		.loc 1 53 28 is_stmt 0 view .LVU16
  64 001c C361     		str	r3, [r0, #28]
  54:Core/Src/usart.c ****   if (HAL_UART_Init(&huart1) != HAL_OK)
  65              		.loc 1 54 3 is_stmt 1 view .LVU17
  66              		.loc 1 54 7 is_stmt 0 view .LVU18
  67 001e FFF7FEFF 		bl	HAL_UART_Init
  68              	.LVL0:
  69              		.loc 1 54 6 view .LVU19
  70 0022 28B9     		cbnz	r0, .L4
  71              	.L2:
  55:Core/Src/usart.c ****   {
  56:Core/Src/usart.c ****     Error_Handler();
  57:Core/Src/usart.c ****   }
  58:Core/Src/usart.c ****   /* USER CODE BEGIN USART1_Init 2 */
  59:Core/Src/usart.c ****   HAL_UART_Receive_IT(&huart1, &cBuffer, 1u);
  72              		.loc 1 59 3 is_stmt 1 view .LVU20
  73 0024 0122     		movs	r2, #1
  74 0026 0649     		ldr	r1, .L5+8
  75 0028 0348     		ldr	r0, .L5
  76 002a FFF7FEFF 		bl	HAL_UART_Receive_IT
  77              	.LVL1:
  60:Core/Src/usart.c ****   /* USER CODE END USART1_Init 2 */
  61:Core/Src/usart.c **** 
  62:Core/Src/usart.c **** }
  78              		.loc 1 62 1 is_stmt 0 view .LVU21
  79 002e 08BD     		pop	{r3, pc}
  80              	.L4:
  56:Core/Src/usart.c ****   }
  81              		.loc 1 56 5 is_stmt 1 view .LVU22
  82 0030 FFF7FEFF 		bl	Error_Handler
  83              	.LVL2:
  84 0034 F6E7     		b	.L2
  85              	.L6:
  86 0036 00BF     		.align	2
  87              	.L5:
  88 0038 00000000 		.word	.LANCHOR0
  89 003c 00380140 		.word	1073821696
  90 0040 00000000 		.word	.LANCHOR1
  91              		.cfi_endproc
  92              	.LFE65:
  94              		.section	.text.HAL_UART_MspInit,"ax",%progbits
  95              		.align	1
  96              		.global	HAL_UART_MspInit
  97              		.syntax unified
  98              		.thumb
  99              		.thumb_func
 100              		.fpu softvfp
 102              	HAL_UART_MspInit:
 103              	.LVL3:
 104              	.LFB66:
  63:Core/Src/usart.c **** 
  64:Core/Src/usart.c **** void HAL_UART_MspInit(UART_HandleTypeDef* uartHandle)
  65:Core/Src/usart.c **** {
 105              		.loc 1 65 1 view -0
 106              		.cfi_startproc
 107              		@ args = 0, pretend = 0, frame = 24
 108              		@ frame_needed = 0, uses_anonymous_args = 0
ARM GAS  /tmp/ccUajAo1.s 			page 4


 109              		.loc 1 65 1 is_stmt 0 view .LVU24
 110 0000 30B5     		push	{r4, r5, lr}
 111              	.LCFI1:
 112              		.cfi_def_cfa_offset 12
 113              		.cfi_offset 4, -12
 114              		.cfi_offset 5, -8
 115              		.cfi_offset 14, -4
 116 0002 87B0     		sub	sp, sp, #28
 117              	.LCFI2:
 118              		.cfi_def_cfa_offset 40
  66:Core/Src/usart.c **** 
  67:Core/Src/usart.c ****   GPIO_InitTypeDef GPIO_InitStruct = {0};
 119              		.loc 1 67 3 is_stmt 1 view .LVU25
 120              		.loc 1 67 20 is_stmt 0 view .LVU26
 121 0004 0023     		movs	r3, #0
 122 0006 0293     		str	r3, [sp, #8]
 123 0008 0393     		str	r3, [sp, #12]
 124 000a 0493     		str	r3, [sp, #16]
 125 000c 0593     		str	r3, [sp, #20]
  68:Core/Src/usart.c ****   if(uartHandle->Instance==USART1)
 126              		.loc 1 68 3 is_stmt 1 view .LVU27
 127              		.loc 1 68 16 is_stmt 0 view .LVU28
 128 000e 0268     		ldr	r2, [r0]
 129              		.loc 1 68 5 view .LVU29
 130 0010 1B4B     		ldr	r3, .L11
 131 0012 9A42     		cmp	r2, r3
 132 0014 01D0     		beq	.L10
 133              	.LVL4:
 134              	.L7:
  69:Core/Src/usart.c ****   {
  70:Core/Src/usart.c ****   /* USER CODE BEGIN USART1_MspInit 0 */
  71:Core/Src/usart.c **** 
  72:Core/Src/usart.c ****   /* USER CODE END USART1_MspInit 0 */
  73:Core/Src/usart.c ****     /* USART1 clock enable */
  74:Core/Src/usart.c ****     __HAL_RCC_USART1_CLK_ENABLE();
  75:Core/Src/usart.c **** 
  76:Core/Src/usart.c ****     __HAL_RCC_GPIOA_CLK_ENABLE();
  77:Core/Src/usart.c ****     /**USART1 GPIO Configuration
  78:Core/Src/usart.c ****     PA9     ------> USART1_TX
  79:Core/Src/usart.c ****     PA10     ------> USART1_RX
  80:Core/Src/usart.c ****     */
  81:Core/Src/usart.c ****     GPIO_InitStruct.Pin = GPIO_PIN_9;
  82:Core/Src/usart.c ****     GPIO_InitStruct.Mode = GPIO_MODE_AF_PP;
  83:Core/Src/usart.c ****     GPIO_InitStruct.Speed = GPIO_SPEED_FREQ_HIGH;
  84:Core/Src/usart.c ****     HAL_GPIO_Init(GPIOA, &GPIO_InitStruct);
  85:Core/Src/usart.c **** 
  86:Core/Src/usart.c ****     GPIO_InitStruct.Pin = GPIO_PIN_10;
  87:Core/Src/usart.c ****     GPIO_InitStruct.Mode = GPIO_MODE_INPUT;
  88:Core/Src/usart.c ****     GPIO_InitStruct.Pull = GPIO_NOPULL;
  89:Core/Src/usart.c ****     HAL_GPIO_Init(GPIOA, &GPIO_InitStruct);
  90:Core/Src/usart.c **** 
  91:Core/Src/usart.c ****     /* USART1 interrupt Init */
  92:Core/Src/usart.c ****     HAL_NVIC_SetPriority(USART1_IRQn, 0, 0);
  93:Core/Src/usart.c ****     HAL_NVIC_EnableIRQ(USART1_IRQn);
  94:Core/Src/usart.c ****   /* USER CODE BEGIN USART1_MspInit 1 */
  95:Core/Src/usart.c **** 
  96:Core/Src/usart.c ****   /* USER CODE END USART1_MspInit 1 */
ARM GAS  /tmp/ccUajAo1.s 			page 5


  97:Core/Src/usart.c ****   }
  98:Core/Src/usart.c **** }
 135              		.loc 1 98 1 view .LVU30
 136 0016 07B0     		add	sp, sp, #28
 137              	.LCFI3:
 138              		.cfi_remember_state
 139              		.cfi_def_cfa_offset 12
 140              		@ sp needed
 141 0018 30BD     		pop	{r4, r5, pc}
 142              	.LVL5:
 143              	.L10:
 144              	.LCFI4:
 145              		.cfi_restore_state
  74:Core/Src/usart.c **** 
 146              		.loc 1 74 5 is_stmt 1 view .LVU31
 147              	.LBB2:
  74:Core/Src/usart.c **** 
 148              		.loc 1 74 5 view .LVU32
  74:Core/Src/usart.c **** 
 149              		.loc 1 74 5 view .LVU33
 150 001a 03F55843 		add	r3, r3, #55296
 151 001e 9A69     		ldr	r2, [r3, #24]
 152 0020 42F48042 		orr	r2, r2, #16384
 153 0024 9A61     		str	r2, [r3, #24]
  74:Core/Src/usart.c **** 
 154              		.loc 1 74 5 view .LVU34
 155 0026 9A69     		ldr	r2, [r3, #24]
 156 0028 02F48042 		and	r2, r2, #16384
 157 002c 0092     		str	r2, [sp]
  74:Core/Src/usart.c **** 
 158              		.loc 1 74 5 view .LVU35
 159 002e 009A     		ldr	r2, [sp]
 160              	.LBE2:
  74:Core/Src/usart.c **** 
 161              		.loc 1 74 5 view .LVU36
  76:Core/Src/usart.c ****     /**USART1 GPIO Configuration
 162              		.loc 1 76 5 view .LVU37
 163              	.LBB3:
  76:Core/Src/usart.c ****     /**USART1 GPIO Configuration
 164              		.loc 1 76 5 view .LVU38
  76:Core/Src/usart.c ****     /**USART1 GPIO Configuration
 165              		.loc 1 76 5 view .LVU39
 166 0030 9A69     		ldr	r2, [r3, #24]
 167 0032 42F00402 		orr	r2, r2, #4
 168 0036 9A61     		str	r2, [r3, #24]
  76:Core/Src/usart.c ****     /**USART1 GPIO Configuration
 169              		.loc 1 76 5 view .LVU40
 170 0038 9B69     		ldr	r3, [r3, #24]
 171 003a 03F00403 		and	r3, r3, #4
 172 003e 0193     		str	r3, [sp, #4]
  76:Core/Src/usart.c ****     /**USART1 GPIO Configuration
 173              		.loc 1 76 5 view .LVU41
 174 0040 019B     		ldr	r3, [sp, #4]
 175              	.LBE3:
  76:Core/Src/usart.c ****     /**USART1 GPIO Configuration
 176              		.loc 1 76 5 view .LVU42
  81:Core/Src/usart.c ****     GPIO_InitStruct.Mode = GPIO_MODE_AF_PP;
ARM GAS  /tmp/ccUajAo1.s 			page 6


 177              		.loc 1 81 5 view .LVU43
  81:Core/Src/usart.c ****     GPIO_InitStruct.Mode = GPIO_MODE_AF_PP;
 178              		.loc 1 81 25 is_stmt 0 view .LVU44
 179 0042 4FF40073 		mov	r3, #512
 180 0046 0293     		str	r3, [sp, #8]
  82:Core/Src/usart.c ****     GPIO_InitStruct.Speed = GPIO_SPEED_FREQ_HIGH;
 181              		.loc 1 82 5 is_stmt 1 view .LVU45
  82:Core/Src/usart.c ****     GPIO_InitStruct.Speed = GPIO_SPEED_FREQ_HIGH;
 182              		.loc 1 82 26 is_stmt 0 view .LVU46
 183 0048 0223     		movs	r3, #2
 184 004a 0393     		str	r3, [sp, #12]
  83:Core/Src/usart.c ****     HAL_GPIO_Init(GPIOA, &GPIO_InitStruct);
 185              		.loc 1 83 5 is_stmt 1 view .LVU47
  83:Core/Src/usart.c ****     HAL_GPIO_Init(GPIOA, &GPIO_InitStruct);
 186              		.loc 1 83 27 is_stmt 0 view .LVU48
 187 004c 0323     		movs	r3, #3
 188 004e 0593     		str	r3, [sp, #20]
  84:Core/Src/usart.c **** 
 189              		.loc 1 84 5 is_stmt 1 view .LVU49
 190 0050 0C4D     		ldr	r5, .L11+4
 191 0052 02A9     		add	r1, sp, #8
 192 0054 2846     		mov	r0, r5
 193              	.LVL6:
  84:Core/Src/usart.c **** 
 194              		.loc 1 84 5 is_stmt 0 view .LVU50
 195 0056 FFF7FEFF 		bl	HAL_GPIO_Init
 196              	.LVL7:
  86:Core/Src/usart.c ****     GPIO_InitStruct.Mode = GPIO_MODE_INPUT;
 197              		.loc 1 86 5 is_stmt 1 view .LVU51
  86:Core/Src/usart.c ****     GPIO_InitStruct.Mode = GPIO_MODE_INPUT;
 198              		.loc 1 86 25 is_stmt 0 view .LVU52
 199 005a 4FF48063 		mov	r3, #1024
 200 005e 0293     		str	r3, [sp, #8]
  87:Core/Src/usart.c ****     GPIO_InitStruct.Pull = GPIO_NOPULL;
 201              		.loc 1 87 5 is_stmt 1 view .LVU53
  87:Core/Src/usart.c ****     GPIO_InitStruct.Pull = GPIO_NOPULL;
 202              		.loc 1 87 26 is_stmt 0 view .LVU54
 203 0060 0024     		movs	r4, #0
 204 0062 0394     		str	r4, [sp, #12]
  88:Core/Src/usart.c ****     HAL_GPIO_Init(GPIOA, &GPIO_InitStruct);
 205              		.loc 1 88 5 is_stmt 1 view .LVU55
  88:Core/Src/usart.c ****     HAL_GPIO_Init(GPIOA, &GPIO_InitStruct);
 206              		.loc 1 88 26 is_stmt 0 view .LVU56
 207 0064 0494     		str	r4, [sp, #16]
  89:Core/Src/usart.c **** 
 208              		.loc 1 89 5 is_stmt 1 view .LVU57
 209 0066 02A9     		add	r1, sp, #8
 210 0068 2846     		mov	r0, r5
 211 006a FFF7FEFF 		bl	HAL_GPIO_Init
 212              	.LVL8:
  92:Core/Src/usart.c ****     HAL_NVIC_EnableIRQ(USART1_IRQn);
 213              		.loc 1 92 5 view .LVU58
 214 006e 2246     		mov	r2, r4
 215 0070 2146     		mov	r1, r4
 216 0072 2520     		movs	r0, #37
 217 0074 FFF7FEFF 		bl	HAL_NVIC_SetPriority
 218              	.LVL9:
ARM GAS  /tmp/ccUajAo1.s 			page 7


  93:Core/Src/usart.c ****   /* USER CODE BEGIN USART1_MspInit 1 */
 219              		.loc 1 93 5 view .LVU59
 220 0078 2520     		movs	r0, #37
 221 007a FFF7FEFF 		bl	HAL_NVIC_EnableIRQ
 222              	.LVL10:
 223              		.loc 1 98 1 is_stmt 0 view .LVU60
 224 007e CAE7     		b	.L7
 225              	.L12:
 226              		.align	2
 227              	.L11:
 228 0080 00380140 		.word	1073821696
 229 0084 00080140 		.word	1073809408
 230              		.cfi_endproc
 231              	.LFE66:
 233              		.section	.text.HAL_UART_MspDeInit,"ax",%progbits
 234              		.align	1
 235              		.global	HAL_UART_MspDeInit
 236              		.syntax unified
 237              		.thumb
 238              		.thumb_func
 239              		.fpu softvfp
 241              	HAL_UART_MspDeInit:
 242              	.LVL11:
 243              	.LFB67:
  99:Core/Src/usart.c **** 
 100:Core/Src/usart.c **** void HAL_UART_MspDeInit(UART_HandleTypeDef* uartHandle)
 101:Core/Src/usart.c **** {
 244              		.loc 1 101 1 is_stmt 1 view -0
 245              		.cfi_startproc
 246              		@ args = 0, pretend = 0, frame = 0
 247              		@ frame_needed = 0, uses_anonymous_args = 0
 248              		.loc 1 101 1 is_stmt 0 view .LVU62
 249 0000 08B5     		push	{r3, lr}
 250              	.LCFI5:
 251              		.cfi_def_cfa_offset 8
 252              		.cfi_offset 3, -8
 253              		.cfi_offset 14, -4
 102:Core/Src/usart.c **** 
 103:Core/Src/usart.c ****   if(uartHandle->Instance==USART1)
 254              		.loc 1 103 3 is_stmt 1 view .LVU63
 255              		.loc 1 103 16 is_stmt 0 view .LVU64
 256 0002 0268     		ldr	r2, [r0]
 257              		.loc 1 103 5 view .LVU65
 258 0004 084B     		ldr	r3, .L17
 259 0006 9A42     		cmp	r2, r3
 260 0008 00D0     		beq	.L16
 261              	.LVL12:
 262              	.L13:
 104:Core/Src/usart.c ****   {
 105:Core/Src/usart.c ****   /* USER CODE BEGIN USART1_MspDeInit 0 */
 106:Core/Src/usart.c **** 
 107:Core/Src/usart.c ****   /* USER CODE END USART1_MspDeInit 0 */
 108:Core/Src/usart.c ****     /* Peripheral clock disable */
 109:Core/Src/usart.c ****     __HAL_RCC_USART1_CLK_DISABLE();
 110:Core/Src/usart.c **** 
 111:Core/Src/usart.c ****     /**USART1 GPIO Configuration
 112:Core/Src/usart.c ****     PA9     ------> USART1_TX
ARM GAS  /tmp/ccUajAo1.s 			page 8


 113:Core/Src/usart.c ****     PA10     ------> USART1_RX
 114:Core/Src/usart.c ****     */
 115:Core/Src/usart.c ****     HAL_GPIO_DeInit(GPIOA, GPIO_PIN_9|GPIO_PIN_10);
 116:Core/Src/usart.c **** 
 117:Core/Src/usart.c ****     /* USART1 interrupt Deinit */
 118:Core/Src/usart.c ****     HAL_NVIC_DisableIRQ(USART1_IRQn);
 119:Core/Src/usart.c ****   /* USER CODE BEGIN USART1_MspDeInit 1 */
 120:Core/Src/usart.c **** 
 121:Core/Src/usart.c ****   /* USER CODE END USART1_MspDeInit 1 */
 122:Core/Src/usart.c ****   }
 123:Core/Src/usart.c **** }
 263              		.loc 1 123 1 view .LVU66
 264 000a 08BD     		pop	{r3, pc}
 265              	.LVL13:
 266              	.L16:
 109:Core/Src/usart.c **** 
 267              		.loc 1 109 5 is_stmt 1 view .LVU67
 268 000c 074A     		ldr	r2, .L17+4
 269 000e 9369     		ldr	r3, [r2, #24]
 270 0010 23F48043 		bic	r3, r3, #16384
 271 0014 9361     		str	r3, [r2, #24]
 115:Core/Src/usart.c **** 
 272              		.loc 1 115 5 view .LVU68
 273 0016 4FF4C061 		mov	r1, #1536
 274 001a 0548     		ldr	r0, .L17+8
 275              	.LVL14:
 115:Core/Src/usart.c **** 
 276              		.loc 1 115 5 is_stmt 0 view .LVU69
 277 001c FFF7FEFF 		bl	HAL_GPIO_DeInit
 278              	.LVL15:
 118:Core/Src/usart.c ****   /* USER CODE BEGIN USART1_MspDeInit 1 */
 279              		.loc 1 118 5 is_stmt 1 view .LVU70
 280 0020 2520     		movs	r0, #37
 281 0022 FFF7FEFF 		bl	HAL_NVIC_DisableIRQ
 282              	.LVL16:
 283              		.loc 1 123 1 is_stmt 0 view .LVU71
 284 0026 F0E7     		b	.L13
 285              	.L18:
 286              		.align	2
 287              	.L17:
 288 0028 00380140 		.word	1073821696
 289 002c 00100240 		.word	1073876992
 290 0030 00080140 		.word	1073809408
 291              		.cfi_endproc
 292              	.LFE67:
 294              		.section	.text.HAL_UART_RxCpltCallback,"ax",%progbits
 295              		.align	1
 296              		.global	HAL_UART_RxCpltCallback
 297              		.syntax unified
 298              		.thumb
 299              		.thumb_func
 300              		.fpu softvfp
 302              	HAL_UART_RxCpltCallback:
 303              	.LVL17:
 304              	.LFB68:
 124:Core/Src/usart.c **** 
 125:Core/Src/usart.c **** /* USER CODE BEGIN 1 */
ARM GAS  /tmp/ccUajAo1.s 			page 9


 126:Core/Src/usart.c **** void HAL_UART_RxCpltCallback(UART_HandleTypeDef *huart) {
 305              		.loc 1 126 57 is_stmt 1 view -0
 306              		.cfi_startproc
 307              		@ args = 0, pretend = 0, frame = 0
 308              		@ frame_needed = 0, uses_anonymous_args = 0
 309              		.loc 1 126 57 is_stmt 0 view .LVU73
 310 0000 38B5     		push	{r3, r4, r5, lr}
 311              	.LCFI6:
 312              		.cfi_def_cfa_offset 16
 313              		.cfi_offset 3, -16
 314              		.cfi_offset 4, -12
 315              		.cfi_offset 5, -8
 316              		.cfi_offset 14, -4
 127:Core/Src/usart.c ****   if (rxCount >= BUFFER_SIZE) {
 317              		.loc 1 127 3 is_stmt 1 view .LVU74
 128:Core/Src/usart.c ****     memset(rxBuffer, 0x00, BUFFER_SIZE);
 129:Core/Src/usart.c ****     rxCount = 0;
 130:Core/Src/usart.c ****     // oled show buffer overflow
 131:Core/Src/usart.c **** 
 132:Core/Src/usart.c ****     return;
 133:Core/Src/usart.c ****   }
 134:Core/Src/usart.c ****   rxBuffer[rxCount ++] = cBuffer;
 318              		.loc 1 134 3 view .LVU75
 319              		.loc 1 134 20 is_stmt 0 view .LVU76
 320 0002 164A     		ldr	r2, .L25
 321 0004 1178     		ldrb	r1, [r2]	@ zero_extendqisi2
 322 0006 4B1C     		adds	r3, r1, #1
 323 0008 DBB2     		uxtb	r3, r3
 324 000a 1370     		strb	r3, [r2]
 325              		.loc 1 134 24 view .LVU77
 326 000c 144A     		ldr	r2, .L25+4
 327 000e 1278     		ldrb	r2, [r2]	@ zero_extendqisi2
 328 0010 1448     		ldr	r0, .L25+8
 329              	.LVL18:
 330              		.loc 1 134 24 view .LVU78
 331 0012 4254     		strb	r2, [r0, r1]
 135:Core/Src/usart.c ****   if (cBuffer == '\n') {
 332              		.loc 1 135 3 is_stmt 1 view .LVU79
 333              		.loc 1 135 6 is_stmt 0 view .LVU80
 334 0014 0A2A     		cmp	r2, #10
 335 0016 05D0     		beq	.L24
 336              	.L20:
 136:Core/Src/usart.c ****     rxBuffer[rxCount - 1] = 0x00;
 137:Core/Src/usart.c ****     // show rxBuffer info
 138:Core/Src/usart.c ****     for (unsigned char p = 1; p < 8; ++ p)
 139:Core/Src/usart.c ****       oledClearPage(p);
 140:Core/Src/usart.c ****     oledShowString(1, 0, (char *)rxBuffer, 0);
 141:Core/Src/usart.c **** 
 142:Core/Src/usart.c ****     memset(rxBuffer, 0x00, rxCount);
 143:Core/Src/usart.c ****     rxCount = 0;
 144:Core/Src/usart.c ****   }
 145:Core/Src/usart.c ****   HAL_UART_Receive_IT(&huart1, &cBuffer, 1u);
 337              		.loc 1 145 3 is_stmt 1 view .LVU81
 338 0018 0122     		movs	r2, #1
 339 001a 1149     		ldr	r1, .L25+4
 340 001c 1248     		ldr	r0, .L25+12
 341 001e FFF7FEFF 		bl	HAL_UART_Receive_IT
ARM GAS  /tmp/ccUajAo1.s 			page 10


 342              	.LVL19:
 146:Core/Src/usart.c **** }
 343              		.loc 1 146 1 is_stmt 0 view .LVU82
 344 0022 38BD     		pop	{r3, r4, r5, pc}
 345              	.L24:
 136:Core/Src/usart.c ****     rxBuffer[rxCount - 1] = 0x00;
 346              		.loc 1 136 5 is_stmt 1 view .LVU83
 136:Core/Src/usart.c ****     rxBuffer[rxCount - 1] = 0x00;
 347              		.loc 1 136 22 is_stmt 0 view .LVU84
 348 0024 013B     		subs	r3, r3, #1
 136:Core/Src/usart.c ****     rxBuffer[rxCount - 1] = 0x00;
 349              		.loc 1 136 27 view .LVU85
 350 0026 0021     		movs	r1, #0
 351 0028 C154     		strb	r1, [r0, r3]
 138:Core/Src/usart.c ****       oledClearPage(p);
 352              		.loc 1 138 5 is_stmt 1 view .LVU86
 353              	.LBB4:
 138:Core/Src/usart.c ****       oledClearPage(p);
 354              		.loc 1 138 10 view .LVU87
 355              	.LVL20:
 138:Core/Src/usart.c ****       oledClearPage(p);
 356              		.loc 1 138 24 is_stmt 0 view .LVU88
 357 002a 0124     		movs	r4, #1
 138:Core/Src/usart.c ****       oledClearPage(p);
 358              		.loc 1 138 5 view .LVU89
 359 002c 04E0     		b	.L21
 360              	.LVL21:
 361              	.L22:
 139:Core/Src/usart.c ****     oledShowString(1, 0, (char *)rxBuffer, 0);
 362              		.loc 1 139 7 is_stmt 1 discriminator 3 view .LVU90
 363 002e 2046     		mov	r0, r4
 364 0030 FFF7FEFF 		bl	oledClearPage
 365              	.LVL22:
 138:Core/Src/usart.c ****       oledClearPage(p);
 366              		.loc 1 138 38 discriminator 3 view .LVU91
 367 0034 0134     		adds	r4, r4, #1
 368              	.LVL23:
 138:Core/Src/usart.c ****       oledClearPage(p);
 369              		.loc 1 138 38 is_stmt 0 discriminator 3 view .LVU92
 370 0036 E4B2     		uxtb	r4, r4
 371              	.LVL24:
 372              	.L21:
 138:Core/Src/usart.c ****       oledClearPage(p);
 373              		.loc 1 138 31 is_stmt 1 discriminator 1 view .LVU93
 138:Core/Src/usart.c ****       oledClearPage(p);
 374              		.loc 1 138 5 is_stmt 0 discriminator 1 view .LVU94
 375 0038 072C     		cmp	r4, #7
 376 003a F8D9     		bls	.L22
 377              	.LBE4:
 140:Core/Src/usart.c **** 
 378              		.loc 1 140 5 is_stmt 1 view .LVU95
 379 003c 094D     		ldr	r5, .L25+8
 380 003e 0023     		movs	r3, #0
 381 0040 2A46     		mov	r2, r5
 382 0042 1946     		mov	r1, r3
 383 0044 0120     		movs	r0, #1
 384 0046 FFF7FEFF 		bl	oledShowString
ARM GAS  /tmp/ccUajAo1.s 			page 11


 385              	.LVL25:
 142:Core/Src/usart.c ****     rxCount = 0;
 386              		.loc 1 142 5 view .LVU96
 387 004a 044C     		ldr	r4, .L25
 388              	.LVL26:
 142:Core/Src/usart.c ****     rxCount = 0;
 389              		.loc 1 142 5 is_stmt 0 view .LVU97
 390 004c 2278     		ldrb	r2, [r4]	@ zero_extendqisi2
 391 004e 0021     		movs	r1, #0
 392 0050 2846     		mov	r0, r5
 393 0052 FFF7FEFF 		bl	memset
 394              	.LVL27:
 143:Core/Src/usart.c ****   }
 395              		.loc 1 143 5 is_stmt 1 view .LVU98
 143:Core/Src/usart.c ****   }
 396              		.loc 1 143 13 is_stmt 0 view .LVU99
 397 0056 0023     		movs	r3, #0
 398 0058 2370     		strb	r3, [r4]
 399 005a DDE7     		b	.L20
 400              	.L26:
 401              		.align	2
 402              	.L25:
 403 005c 00000000 		.word	.LANCHOR2
 404 0060 00000000 		.word	.LANCHOR1
 405 0064 00000000 		.word	.LANCHOR3
 406 0068 00000000 		.word	.LANCHOR0
 407              		.cfi_endproc
 408              	.LFE68:
 410              		.global	huart1
 411              		.global	rxCount
 412              		.global	cBuffer
 413              		.global	rxBuffer
 414              		.section	.bss.cBuffer,"aw",%nobits
 415              		.set	.LANCHOR1,. + 0
 418              	cBuffer:
 419 0000 00       		.space	1
 420              		.section	.bss.huart1,"aw",%nobits
 421              		.align	2
 422              		.set	.LANCHOR0,. + 0
 425              	huart1:
 426 0000 00000000 		.space	68
 426      00000000 
 426      00000000 
 426      00000000 
 426      00000000 
 427              		.section	.bss.rxBuffer,"aw",%nobits
 428              		.align	2
 429              		.set	.LANCHOR3,. + 0
 432              	rxBuffer:
 433 0000 00000000 		.space	256
 433      00000000 
 433      00000000 
 433      00000000 
 433      00000000 
 434              		.section	.bss.rxCount,"aw",%nobits
 435              		.set	.LANCHOR2,. + 0
 438              	rxCount:
ARM GAS  /tmp/ccUajAo1.s 			page 12


 439 0000 00       		.space	1
 440              		.text
 441              	.Letext0:
 442              		.file 2 "/usr/lib/gcc/arm-none-eabi/10.3.1/include/stdint.h"
 443              		.file 3 "Drivers/CMSIS/Device/ST/STM32F1xx/Include/stm32f103xb.h"
 444              		.file 4 "Drivers/STM32F1xx_HAL_Driver/Inc/stm32f1xx_hal_def.h"
 445              		.file 5 "Drivers/STM32F1xx_HAL_Driver/Inc/stm32f1xx_hal_gpio.h"
 446              		.file 6 "Drivers/STM32F1xx_HAL_Driver/Inc/stm32f1xx_hal_dma.h"
 447              		.file 7 "Drivers/STM32F1xx_HAL_Driver/Inc/stm32f1xx_hal_uart.h"
 448              		.file 8 "Core/Inc/usart.h"
 449              		.file 9 "Core/Inc/oled.h"
 450              		.file 10 "Drivers/STM32F1xx_HAL_Driver/Inc/stm32f1xx_hal_cortex.h"
 451              		.file 11 "Core/Inc/main.h"
 452              		.file 12 "<built-in>"
ARM GAS  /tmp/ccUajAo1.s 			page 13

